(dp0
I0
(dp1
I3
F1.749383100209775
sI4
F-3.0066228480609607
sI5
F4.152892615265336
sI6
F-1.6294954357483276
sI7
F0.18076669514757543
ssI1
(dp2
I3
F-4.348117639010588
sI4
F0.7088863582938592
sI5
F1.6657407014219094
sI6
F2.8770679782671906
sI7
F-1.0526855414124356
ssI2
(dp3
I3
F1.041950356363144
sI4
F0.8852064190534206
sI5
F-1.6591432295048825
sI6
F-0.44701075293838183
sI7
F-0.08881872903832588
ssI3
(dp4
I9
F-3.8905541721275134
sI10
F2.9941154598646893
sI11
F1.6848423240871564
sI12
F-1.2133304836056686
ssI4
(dp5
I9
F0.08815202418177151
sI10
F-2.914339628174765
sI11
F1.8449369414241772
sI12
F0.8033378305654723
ssI5
(dp6
I9
F1.508329131648479
sI10
F2.277567625419559
sI11
F-3.871812619633502
sI12
F-0.013186884315033962
ssI6
(dp7
I9
F2.0425448940198883
sI10
F-3.0639868607544285
sI11
F-1.1373966371980513
sI12
F-0.16345289543524455
ssI7
(dp8
I9
F-1.27280833784352
sI10
F-0.3145250828213724
sI11
F0.20124050714803465
sI12
F-0.8846084775464998
ssI8
(dp9
I9
F-1.4921723921766012
sI10
F-1.261969441278182
sI11
F-0.006747469361081757
sI12
F-0.3454804599388368
ss.