(dp0
I0
(dp1
I3
F-5.9676053616233
sI4
F4.2968383185527355
sI5
F3.9339127280554202
sI6
F-5.093962542173349
sI7
F-11.80718548121284
ssI1
(dp2
I3
F-0.8941343496972073
sI4
F3.3424852607888984
sI5
F-9.816830334274623
sI6
F10.04473873415981
sI7
F-4.949910489424146
ssI2
(dp3
I3
F1.50676297132105
sI4
F-2.0620496146460656
sI5
F6.312088794871883
sI6
F-0.23625431533526786
sI7
F3.807497771124525
ssI3
(dp4
I9
F-1.8585980264258015
sI10
F-4.038439107797013
sI11
F3.928050100587692
sI12
F0.7971511148238524
ssI4
(dp5
I9
F2.4383741721494387
sI10
F-1.5180884519811055
sI11
F-6.822182250655286
sI12
F-1.2003952391443686
ssI5
(dp6
I9
F-9.902682348138006
sI10
F7.036777468983801
sI11
F-0.4393296089648982
sI12
F5.757702045760617
ssI6
(dp7
I9
F4.644389463637293
sI10
F-8.763644386666494
sI11
F2.0432055298875236
sI12
F5.7179113391475855
ssI7
(dp8
I9
F-4.161008596914449
sI10
F-6.002378810597431
sI11
F10.018578908679787
sI12
F-3.8844767368764668
ssI8
(dp9
I9
F-1.2027768765592386
sI10
F0.287342515352117
sI11
F-3.2740840010348085
sI12
F-7.717998680747939
ss.