(dp0
I0
(dp1
I3
F-7.090671609731977
sI4
F-0.6951066193044918
sI5
F-17.813234370314905
sI6
F-2.229150415331182
sI7
F16.154609571071646
ssI1
(dp2
I3
F8.691737141425156
sI4
F-12.533367029547712
sI5
F-6.83762515241438
sI6
F18.30590894485131
sI7
F-11.050833178685387
ssI2
(dp3
I3
F2.599391591068756
sI4
F3.6677272823315947
sI5
F5.9424782976660016
sI6
F-14.208206086853384
sI7
F-3.7127393616870297
ssI3
(dp4
I9
F0.06178019273160794
sI10
F-8.214737399750229
sI11
F-0.25230297433300447
sI12
F5.853439350106732
ssI4
(dp5
I9
F-7.248046867355894
sI10
F4.853338256798669
sI11
F7.584471702171896
sI12
F-5.608174390956939
ssI5
(dp6
I9
F-2.368195977494185
sI10
F-8.739924742649922
sI11
F14.125009316934394
sI12
F-4.50244284417813
ssI6
(dp7
I9
F13.68616325363996
sI10
F-2.4777217919056325
sI11
F-6.264992623919816
sI12
F-15.706140876599097
ssI7
(dp8
I9
F-5.018887953798791
sI10
F12.937636487230323
sI11
F-13.511127051115198
sI12
F0.8478826893601087
ssI8
(dp9
I9
F-4.31547734459654
sI10
F0.026893016704768204
sI11
F-6.812897829493864
sI12
F-0.7382309220792252
ss.