(dp0
I0
(dp1
I3
F0.9723613218838347
sI4
F-0.37910754446886585
sI5
F-0.6582389634106616
sI6
F0.8113130651798692
sI7
F0.962099296158651
ssI1
(dp2
I3
F-0.8256319580883598
sI4
F-0.6344196726506042
sI5
F-0.3684136252475674
sI6
F0.33867460162355423
sI7
F0.7998441049791127
ssI2
(dp3
I3
F0.24972428843448502
sI4
F-0.7525033607382574
sI5
F0.9314175064688897
sI6
F0.9244825234514213
sI7
F-0.41915234559505476
ssI3
(dp4
I9
F-0.9602781565372538
sI10
F0.4919067589020376
sI11
F-0.06451309040608466
sI12
F-0.8162758814576978
ssI4
(dp5
I9
F0.7170838116043354
sI10
F-0.8874530393891908
sI11
F0.3413797174351445
sI12
F-0.4160023025122148
ssI5
(dp6
I9
F-0.0769685411827068
sI10
F-0.9144443841325205
sI11
F-0.7950491864309366
sI12
F-0.8993325166304869
ssI6
(dp7
I9
F0.39571564053232233
sI10
F-0.6591892531132455
sI11
F-0.7182194168862059
sI12
F-0.9391178300653811
ssI7
(dp8
I9
F-0.8766316132165322
sI10
F0.7141707585333863
sI11
F0.259151552868391
sI12
F-0.4719347409768282
ssI8
(dp9
I9
F0.8204305300121808
sI10
F-0.4638413063080471
sI11
F0.5007440180330129
sI12
F-0.3432906436942431
ss.