(dp0
I0
(dp1
I3
F-0.2645704005702839
sI4
F-0.4595812056182555
sI5
F0.5396488852014507
sI6
F-0.13424981198869443
sI7
F-0.3737724998550012
ssI1
(dp2
I3
F0.6697821726261667
sI4
F-1.3358644700870714
sI5
F1.6554421437193347
sI6
F0.9264011849002614
sI7
F-0.2459614451418983
ssI2
(dp3
I3
F-0.3722274053782979
sI4
F0.659883685411644
sI5
F-0.6445833586813646
sI6
F-0.1360335641234541
sI7
F0.964493068510701
ssI3
(dp4
I9
F-0.7957429106602374
sI10
F0.17927341450750872
sI11
F-0.8687110780339723
sI12
F0.1425197852385198
ssI4
(dp5
I9
F-0.7834307809468454
sI10
F0.08576265981804548
sI11
F0.9791978378982952
sI12
F-0.16292384038748725
ssI5
(dp6
I9
F1.2515783392028565
sI10
F-1.2746092392748847
sI11
F-1.2924780877979916
sI12
F-0.07903848222491486
ssI6
(dp7
I9
F-0.7912151265719368
sI10
F-1.3483174215999336
sI11
F-0.6584631735289689
sI12
F-0.4030994835540702
ssI7
(dp8
I9
F-0.06820574670988011
sI10
F0.17306190752380995
sI11
F-0.6632956865890514
sI12
F-0.2399576149481719
ssI8
(dp9
I9
F-0.9262900081822985
sI10
F0.0631694204269944
sI11
F0.6660225409420168
sI12
F-0.6794492783523703
ss.